target datalayout = "e-m:e-p270:32:32-p271:32:32-p272:64:64-i64:64-i128:128-f80:128-n8:16:32:64-S128"
target triple = "x86_64-pc-linux-gnu"

%struct.Agobj_s = type { %struct.Agtag_s, ptr }
%struct.Agtag_s = type { i32, i64 }
%struct.Agraphinfo_t = type { %struct.Agrec_s, ptr, ptr, %struct.boxf, [4 x %struct.pointf_s], i8, i8, i8, i8, i32, double, double, i16, ptr, ptr, ptr, ptr, i32, ptr, ptr, ptr, ptr, i16, i16, i32, ptr, ptr, ptr, ptr, ptr, i32, ptr, ptr, %struct.nlist_t, ptr, ptr, i32, i32, i8, i8, i32, i32, i32, ptr, ptr, ptr, ptr, i8, i8, i8, i8, i8 }
%struct.Agrec_s = type { ptr, ptr }
%struct.boxf = type { %struct.pointf_s, %struct.pointf_s }
%struct.pointf_s = type { double, double }
%struct.nlist_t = type { ptr, i64 }
%struct.Agnodeinfo_t = type { %struct.Agrec_s, ptr, ptr, %struct.pointf_s, double, double, %struct.boxf, double, double, double, double, double, ptr, ptr, ptr, i8, i8, i8, i8, i32, i32, i32, ptr, double, i8, i8, ptr, ptr, i8, i64, i8, i8, i8, ptr, ptr, %struct.elist, %struct.elist, %struct.elist, %struct.elist, %struct.elist, ptr, i32, ptr, i32, i32, double, %struct.elist, %struct.elist, %struct.elist, %struct.elist, ptr, i32, i32, i32, [1 x double] }
%struct.elist = type { ptr, i64 }

; Function Attrs: nounwind uwtable
define internal void @make_lrvn(ptr noundef %0) #0 {
  %2 = alloca ptr, align 8
  %3 = alloca ptr, align 8
  %4 = alloca ptr, align 8
  %5 = alloca i32, align 4
  %6 = alloca i32, align 4
  store ptr %0, ptr %2, align 8, !tbaa !3
  call void @llvm.lifetime.start.p0(i64 8, ptr %3) #11
  call void @llvm.lifetime.start.p0(i64 8, ptr %4) #11
  %7 = load ptr, ptr %2, align 8, !tbaa !3
  %8 = getelementptr inbounds nuw %struct.Agobj_s, ptr %7, i32 0, i32 1
  %9 = load ptr, ptr %8, align 8, !tbaa !8
  %10 = getelementptr inbounds nuw %struct.Agraphinfo_t, ptr %9, i32 0, i32 43
  %11 = load ptr, ptr %10, align 8, !tbaa !174
  %12 = icmp ne ptr %11, null
  br i1 %12, label %13, label %14

13:                                               ; preds = %1
  store i32 1, ptr %5, align 4
  br label %101

14:                                               ; preds = %1
  %15 = load ptr, ptr %2, align 8, !tbaa !3
  %16 = call ptr @dot_root(ptr noundef %15)
  %17 = call ptr @virtual_node(ptr noundef %16)
  store ptr %17, ptr %3, align 8, !tbaa !46
  %18 = load ptr, ptr %3, align 8, !tbaa !46
  %19 = getelementptr inbounds nuw %struct.Agobj_s, ptr %18, i32 0, i32 1
  %20 = load ptr, ptr %19, align 8, !tbaa !8
  %21 = getelementptr inbounds nuw %struct.Agnodeinfo_t, ptr %20, i32 0, i32 28
  store i8 2, ptr %21, align 8, !tbaa !100
  %22 = load ptr, ptr %2, align 8, !tbaa !3
  %23 = call ptr @dot_root(ptr noundef %22)
  %24 = call ptr @virtual_node(ptr noundef %23)
  store ptr %24, ptr %4, align 8, !tbaa !46
  %25 = load ptr, ptr %4, align 8, !tbaa !46
  %26 = getelementptr inbounds nuw %struct.Agobj_s, ptr %25, i32 0, i32 1
  %27 = load ptr, ptr %26, align 8, !tbaa !8
  %28 = getelementptr inbounds nuw %struct.Agnodeinfo_t, ptr %27, i32 0, i32 28
  store i8 2, ptr %28, align 8, !tbaa !100
  %29 = load ptr, ptr %2, align 8, !tbaa !3
  %30 = getelementptr inbounds nuw %struct.Agobj_s, ptr %29, i32 0, i32 1
  %31 = load ptr, ptr %30, align 8, !tbaa !8
  %32 = getelementptr inbounds nuw %struct.Agraphinfo_t, ptr %31, i32 0, i32 2
  %33 = load ptr, ptr %32, align 8, !tbaa !188
  %34 = icmp ne ptr %33, null
  br i1 %34, label %35, label %90

35:                                               ; preds = %14
  %36 = load ptr, ptr %2, align 8, !tbaa !3
  %37 = load ptr, ptr %2, align 8, !tbaa !3
  %38 = call ptr @dot_root(ptr noundef %37)
  %39 = icmp ne ptr %36, %38
  br i1 %39, label %40, label %90

40:                                               ; preds = %35
  %41 = load ptr, ptr %2, align 8, !tbaa !3
  %42 = call ptr @agroot(ptr noundef %41)
  %43 = getelementptr inbounds nuw %struct.Agobj_s, ptr %42, i32 0, i32 1
  %44 = load ptr, ptr %43, align 8, !tbaa !8
  %45 = getelementptr inbounds nuw %struct.Agraphinfo_t, ptr %44, i32 0, i32 9
  %46 = load i32, ptr %45, align 4, !tbaa !85
  %47 = and i32 %46, 3
  %48 = and i32 %47, 1
  %49 = icmp ne i32 %48, 0
  br i1 %49, label %90, label %50

50:                                               ; preds = %40
  call void @llvm.lifetime.start.p0(i64 4, ptr %6) #11
  %51 = load ptr, ptr %2, align 8, !tbaa !3
  %52 = getelementptr inbounds nuw %struct.Agobj_s, ptr %51, i32 0, i32 1
  %53 = load ptr, ptr %52, align 8, !tbaa !8
  %54 = getelementptr inbounds nuw %struct.Agraphinfo_t, ptr %53, i32 0, i32 4
  %55 = getelementptr inbounds [4 x %struct.pointf_s], ptr %54, i64 0, i64 0
  %56 = getelementptr inbounds nuw %struct.pointf_s, ptr %55, i32 0, i32 0
  %57 = load double, ptr %56, align 8, !tbaa !110
  %58 = load ptr, ptr %2, align 8, !tbaa !3
  %59 = getelementptr inbounds nuw %struct.Agobj_s, ptr %58, i32 0, i32 1
  %60 = load ptr, ptr %59, align 8, !tbaa !8
  %61 = getelementptr inbounds nuw %struct.Agraphinfo_t, ptr %60, i32 0, i32 4
  %62 = getelementptr inbounds [4 x %struct.pointf_s], ptr %61, i64 0, i64 2
  %63 = getelementptr inbounds nuw %struct.pointf_s, ptr %62, i32 0, i32 0
  %64 = load double, ptr %63, align 8, !tbaa !110
  %65 = fcmp ogt double %57, %64
  br i1 %65, label %66, label %74

66:                                               ; preds = %50
  %67 = load ptr, ptr %2, align 8, !tbaa !3
  %68 = getelementptr inbounds nuw %struct.Agobj_s, ptr %67, i32 0, i32 1
  %69 = load ptr, ptr %68, align 8, !tbaa !8
  %70 = getelementptr inbounds nuw %struct.Agraphinfo_t, ptr %69, i32 0, i32 4
  %71 = getelementptr inbounds [4 x %struct.pointf_s], ptr %70, i64 0, i64 0
  %72 = getelementptr inbounds nuw %struct.pointf_s, ptr %71, i32 0, i32 0
  %73 = load double, ptr %72, align 8, !tbaa !110
  br label %82

74:                                               ; preds = %50
  %75 = load ptr, ptr %2, align 8, !tbaa !3
  %76 = getelementptr inbounds nuw %struct.Agobj_s, ptr %75, i32 0, i32 1
  %77 = load ptr, ptr %76, align 8, !tbaa !8
  %78 = getelementptr inbounds nuw %struct.Agraphinfo_t, ptr %77, i32 0, i32 4
  %79 = getelementptr inbounds [4 x %struct.pointf_s], ptr %78, i64 0, i64 2
  %80 = getelementptr inbounds nuw %struct.pointf_s, ptr %79, i32 0, i32 0
  %81 = load double, ptr %80, align 8, !tbaa !110
  br label %82

82:                                               ; preds = %74, %66
  %83 = phi double [ %73, %66 ], [ %81, %74 ]
  %84 = fptosi double %83 to i32
  store i32 %84, ptr %6, align 4, !tbaa !36
  %85 = load ptr, ptr %3, align 8, !tbaa !46
  %86 = load ptr, ptr %4, align 8, !tbaa !46
  %87 = load i32, ptr %6, align 4, !tbaa !36
  %88 = sitofp i32 %87 to double
  %89 = call ptr @make_aux_edge(ptr noundef %85, ptr noundef %86, double noundef %88, i32 noundef 0)
  call void @llvm.lifetime.end.p0(i64 4, ptr %6) #11
  br label %90

90:                                               ; preds = %82, %40, %35, %14
  %91 = load ptr, ptr %3, align 8, !tbaa !46
  %92 = load ptr, ptr %2, align 8, !tbaa !3
  %93 = getelementptr inbounds nuw %struct.Agobj_s, ptr %92, i32 0, i32 1
  %94 = load ptr, ptr %93, align 8, !tbaa !8
  %95 = getelementptr inbounds nuw %struct.Agraphinfo_t, ptr %94, i32 0, i32 43
  store ptr %91, ptr %95, align 8, !tbaa !174
  %96 = load ptr, ptr %4, align 8, !tbaa !46
  %97 = load ptr, ptr %2, align 8, !tbaa !3
  %98 = getelementptr inbounds nuw %struct.Agobj_s, ptr %97, i32 0, i32 1
  %99 = load ptr, ptr %98, align 8, !tbaa !8
  %100 = getelementptr inbounds nuw %struct.Agraphinfo_t, ptr %99, i32 0, i32 44
  store ptr %96, ptr %100, align 8, !tbaa !175
  store i32 0, ptr %5, align 4
  br label %101

101:                                              ; preds = %90, %13
  call void @llvm.lifetime.end.p0(i64 8, ptr %4) #11
  call void @llvm.lifetime.end.p0(i64 8, ptr %3) #11
  %102 = load i32, ptr %5, align 4
  switch i32 %102, label %104 [
    i32 0, label %103
    i32 1, label %103
  ]

103:                                              ; preds = %101, %101
  ret void

104:                                              ; preds = %101
  unreachable
}