; Function Attrs: nounwind uwtable
define internal fastcc void @make_lrvn(ptr noundef %0) unnamed_addr #0 {
  %2 = getelementptr inbounds nuw i8, ptr %0, i64 16
  %3 = load ptr, ptr %2, align 8, !tbaa !3
  %4 = getelementptr inbounds nuw i8, ptr %3, i64 360
  %5 = load ptr, ptr %4, align 8, !tbaa !118
  %.not = icmp eq ptr %5, null
  br i1 %.not, label %6, label %43

6:                                                ; preds = %1
  %7 = tail call ptr @dot_root(ptr noundef nonnull %0) #15
  %8 = tail call ptr @virtual_node(ptr noundef %7) #15
  %9 = getelementptr inbounds nuw i8, ptr %8, i64 16
  %10 = load ptr, ptr %9, align 8, !tbaa !3
  %11 = getelementptr inbounds nuw i8, ptr %10, i64 216
  store i8 2, ptr %11, align 8, !tbaa !107
  %12 = tail call ptr @dot_root(ptr noundef nonnull %0) #15
  %13 = tail call ptr @virtual_node(ptr noundef %12) #15
  %14 = getelementptr inbounds nuw i8, ptr %13, i64 16
  %15 = load ptr, ptr %14, align 8, !tbaa !3
  %16 = getelementptr inbounds nuw i8, ptr %15, i64 216
  store i8 2, ptr %16, align 8, !tbaa !107
  %17 = load ptr, ptr %2, align 8, !tbaa !3
  %18 = getelementptr inbounds nuw i8, ptr %17, i64 24
  %19 = load ptr, ptr %18, align 8, !tbaa !180
  %.not21 = icmp eq ptr %19, null
  br i1 %.not21, label %39, label %20

20:                                               ; preds = %6
  %21 = tail call ptr @dot_root(ptr noundef nonnull %0) #15
  %.not22 = icmp eq ptr %0, %21
  br i1 %.not22, label %39, label %22

22:                                               ; preds = %20
  %23 = tail call ptr @agroot(ptr noundef nonnull %0) #15
  %24 = getelementptr inbounds nuw i8, ptr %23, i64 16
  %25 = load ptr, ptr %24, align 8, !tbaa !3
  %26 = getelementptr inbounds nuw i8, ptr %25, i64 132
  %27 = load i32, ptr %26, align 4, !tbaa !117
  %28 = and i32 %27, 1
  %.not23 = icmp eq i32 %28, 0
  br i1 %.not23, label %29, label %39

29:                                               ; preds = %22
  %30 = load ptr, ptr %2, align 8, !tbaa !3
  %31 = getelementptr inbounds nuw i8, ptr %30, i64 64
  %32 = load double, ptr %31, align 8, !tbaa !174
  %33 = getelementptr inbounds nuw i8, ptr %30, i64 96
  %34 = load double, ptr %33, align 8, !tbaa !174
  %35 = fcmp ogt double %32, %34
  %. = select i1 %35, double %32, double %34
  %36 = fptosi double %. to i32
  %37 = sitofp i32 %36 to double
  %38 = tail call ptr @make_aux_edge(ptr noundef nonnull %8, ptr noundef nonnull %13, double noundef %37, i32 noundef 0)
  br label %39

39:                                               ; preds = %29, %22, %20, %6
  %40 = load ptr, ptr %2, align 8, !tbaa !3
  %41 = getelementptr inbounds nuw i8, ptr %40, i64 360
  store ptr %8, ptr %41, align 8, !tbaa !118
  %42 = getelementptr inbounds nuw i8, ptr %40, i64 368
  store ptr %13, ptr %42, align 8, !tbaa !119
  br label %43

43:                                               ; preds = %1, %39
  ret void
}